; Function Attrs: mustprogress uwtable
define void @_ZN5faiss28IndexIVFLocalSearchQuantizerC2EPNS_5IndexEmmmmNS_10MetricTypeENS_17AdditiveQuantizer13Search_type_tE(ptr noundef nonnull align 8 dereferenceable(680) %0, ptr noundef %1, i64 noundef %2, i64 noundef %3, i64 noundef %4, i64 noundef %5, i32 noundef %6, i32 noundef %7) unnamed_addr #2 align 2 personality ptr @__gxx_personality_v0 {
  store ptr getelementptr inbounds ({ [35 x ptr], [6 x ptr] }, ptr @_ZTVN5faiss28IndexIVFLocalSearchQuantizerE, i64 0, i32 0, i64 2), ptr %0, align 8
  %9 = getelementptr inbounds i8, ptr %0, i64 40
  store ptr getelementptr inbounds ({ [35 x ptr], [6 x ptr] }, ptr @_ZTVN5faiss28IndexIVFLocalSearchQuantizerE, i64 0, i32 1, i64 2), ptr %9, align 8
  %10 = getelementptr inbounds i8, ptr %0, i64 280
  tail call void @_ZN5faiss8IndexIVFC2EPNS_5IndexEmmmNS_10MetricTypeE(ptr noundef nonnull align 8 dereferenceable(257) %0, ptr noundef %1, i64 noundef %2, i64 noundef %3, i64 noundef 0, i32 noundef %6)
  %11 = getelementptr inbounds i8, ptr %0, i64 264
  store ptr %10, ptr %11, align 8
  %12 = getelementptr inbounds i8, ptr %0, i64 272
  store i32 0, ptr %12, align 8
  %13 = getelementptr inbounds i8, ptr %0, i64 256
  store i8 1, ptr %13, align 8
  store ptr getelementptr inbounds ({ [35 x ptr], [6 x ptr] }, ptr @_ZTVN5faiss28IndexIVFLocalSearchQuantizerE, i64 0, i32 0, i64 2), ptr %0, align 8
  store ptr getelementptr inbounds ({ [35 x ptr], [6 x ptr] }, ptr @_ZTVN5faiss28IndexIVFLocalSearchQuantizerE, i64 0, i32 1, i64 2), ptr %9, align 8
  invoke void @_ZN5faiss20LocalSearchQuantizerC1EmmmNS_17AdditiveQuantizer13Search_type_tE(ptr noundef nonnull align 8 dereferenceable(393) %10, i64 noundef %2, i64 noundef %4, i64 noundef %5, i32 noundef %7)
          to label %14 unwind label %21

14:                                               ; preds = %8
  %15 = getelementptr inbounds i8, ptr %0, i64 296
  %16 = load i64, ptr %15, align 8
  %17 = getelementptr inbounds i8, ptr %0, i64 136
  %18 = load ptr, ptr %17, align 8
  %19 = getelementptr inbounds i8, ptr %18, i64 16
  store i64 %16, ptr %19, align 8
  %20 = getelementptr inbounds i8, ptr %0, i64 152
  store i64 %16, ptr %20, align 8
  ret void

21:                                               ; preds = %8
  %22 = landingpad { ptr, i32 }
          cleanup
  tail call void @_ZN5faiss8IndexIVFD2Ev(ptr noundef nonnull align 8 dereferenceable(257) %0) #9
  resume { ptr, i32 } %22
}